
irq.elf:     file format elf32-littleriscv


Disassembly of section .text:

10000000 <start>:
10000000:	00000093          	li	ra,0
10000004:	00000193          	li	gp,0
10000008:	00000213          	li	tp,0
1000000c:	00000293          	li	t0,0
10000010:	00000313          	li	t1,0
10000014:	00000393          	li	t2,0
10000018:	00000413          	li	s0,0
1000001c:	00000493          	li	s1,0
10000020:	00000513          	li	a0,0
10000024:	00000593          	li	a1,0
10000028:	00000613          	li	a2,0
1000002c:	00000693          	li	a3,0
10000030:	00000713          	li	a4,0
10000034:	00000793          	li	a5,0
10000038:	00000813          	li	a6,0
1000003c:	00000893          	li	a7,0
10000040:	00000913          	li	s2,0
10000044:	00000993          	li	s3,0
10000048:	00000a13          	li	s4,0
1000004c:	00000a93          	li	s5,0
10000050:	00000b13          	li	s6,0
10000054:	00000b93          	li	s7,0
10000058:	00000c13          	li	s8,0
1000005c:	00000c93          	li	s9,0
10000060:	00000d13          	li	s10,0
10000064:	00000d93          	li	s11,0
10000068:	00000e13          	li	t3,0
1000006c:	00000e93          	li	t4,0
10000070:	00000f13          	li	t5,0
10000074:	00000f93          	li	t6,0
10000078:	00000517          	auipc	a0,0x0
1000007c:	3e050513          	addi	a0,a0,992 # 10000458 <_etext>
10000080:	00000593          	li	a1,0
10000084:	00000613          	li	a2,0
10000088:	00c5dc63          	bge	a1,a2,100000a0 <end_init_data>

1000008c <loop_init_data>:
1000008c:	00052683          	lw	a3,0(a0)
10000090:	00d5a023          	sw	a3,0(a1)
10000094:	00450513          	addi	a0,a0,4
10000098:	00458593          	addi	a1,a1,4
1000009c:	fec5c8e3          	blt	a1,a2,1000008c <loop_init_data>

100000a0 <end_init_data>:
100000a0:	00000513          	li	a0,0
100000a4:	00400593          	li	a1,4
100000a8:	00b55863          	bge	a0,a1,100000b8 <end_init_bss>

100000ac <loop_init_bss>:
100000ac:	00052023          	sw	zero,0(a0)
100000b0:	00450513          	addi	a0,a0,4
100000b4:	feb54ce3          	blt	a0,a1,100000ac <loop_init_bss>

100000b8 <end_init_bss>:
100000b8:	60000113          	li	sp,1536
100000bc:	30529073          	csrw	mtvec,t0
100000c0:	284000ef          	jal	ra,10000344 <main>

100000c4 <loop>:
100000c4:	0000006f          	j	100000c4 <loop>

100000c8 <flashio_worker_begin>:
100000c8:	280002b7          	lui	t0,0x28000
100000cc:	12000313          	li	t1,288
100000d0:	00629023          	sh	t1,0(t0) # 28000000 <_etext+0x17fffba8>
100000d4:	000281a3          	sb	zero,3(t0)
100000d8:	02060863          	beqz	a2,10000108 <flashio_worker_L1>
100000dc:	00800f13          	li	t5,8
100000e0:	0ff67393          	andi	t2,a2,255

100000e4 <flashio_worker_L4>:
100000e4:	0073de93          	srli	t4,t2,0x7
100000e8:	01d28023          	sb	t4,0(t0)
100000ec:	010eee93          	ori	t4,t4,16
100000f0:	01d28023          	sb	t4,0(t0)
100000f4:	00139393          	slli	t2,t2,0x1
100000f8:	0ff3f393          	andi	t2,t2,255
100000fc:	ffff0f13          	addi	t5,t5,-1
10000100:	fe0f12e3          	bnez	t5,100000e4 <flashio_worker_L4>
10000104:	00628023          	sb	t1,0(t0)

10000108 <flashio_worker_L1>:
10000108:	06058063          	beqz	a1,10000168 <flashio_worker_L3>
1000010c:	02000f13          	li	t5,32
10000110:	00052383          	lw	t2,0(a0)

10000114 <flashio_worker_LY>:
10000114:	00800f93          	li	t6,8

10000118 <flashio_worker_L2>:
10000118:	01f3de93          	srli	t4,t2,0x1f
1000011c:	01d28023          	sb	t4,0(t0)
10000120:	010eee93          	ori	t4,t4,16
10000124:	01d28023          	sb	t4,0(t0)
10000128:	0002ce83          	lbu	t4,0(t0)
1000012c:	002efe93          	andi	t4,t4,2
10000130:	001ede93          	srli	t4,t4,0x1
10000134:	00139393          	slli	t2,t2,0x1
10000138:	01d3e3b3          	or	t2,t2,t4
1000013c:	ffff0f13          	addi	t5,t5,-1
10000140:	000f1863          	bnez	t5,10000150 <flashio_worker_LX>
10000144:	00752023          	sw	t2,0(a0)
10000148:	00450513          	addi	a0,a0,4
1000014c:	00052383          	lw	t2,0(a0)

10000150 <flashio_worker_LX>:
10000150:	ffff8f93          	addi	t6,t6,-1
10000154:	fc0f92e3          	bnez	t6,10000118 <flashio_worker_L2>
10000158:	fff58593          	addi	a1,a1,-1
1000015c:	fa059ce3          	bnez	a1,10000114 <flashio_worker_LY>
10000160:	000f0463          	beqz	t5,10000168 <flashio_worker_L3>
10000164:	00752023          	sw	t2,0(a0)

10000168 <flashio_worker_L3>:
10000168:	08000313          	li	t1,128
1000016c:	006281a3          	sb	t1,3(t0)
10000170:	00008067          	ret

10000174 <flush_cpu_icache>:
10000174:	ff010113          	addi	sp,sp,-16
10000178:	00812623          	sw	s0,12(sp)
1000017c:	01010413          	addi	s0,sp,16
10000180:	00000013          	nop
10000184:	00c12403          	lw	s0,12(sp)
10000188:	01010113          	addi	sp,sp,16
1000018c:	00008067          	ret

10000190 <flush_cpu_dcache>:
10000190:	ff010113          	addi	sp,sp,-16
10000194:	00812623          	sw	s0,12(sp)
10000198:	01010413          	addi	s0,sp,16
1000019c:	00000013          	nop
100001a0:	00c12403          	lw	s0,12(sp)
100001a4:	01010113          	addi	sp,sp,16
100001a8:	00008067          	ret

100001ac <irq_getmask>:
100001ac:	fe010113          	addi	sp,sp,-32
100001b0:	00812e23          	sw	s0,28(sp)
100001b4:	02010413          	addi	s0,sp,32
100001b8:	bc0027f3          	csrr	a5,0xbc0
100001bc:	fef42623          	sw	a5,-20(s0)
100001c0:	fec42783          	lw	a5,-20(s0)
100001c4:	00078513          	mv	a0,a5
100001c8:	01c12403          	lw	s0,28(sp)
100001cc:	02010113          	addi	sp,sp,32
100001d0:	00008067          	ret

100001d4 <irq_setmask>:
100001d4:	fe010113          	addi	sp,sp,-32
100001d8:	00812e23          	sw	s0,28(sp)
100001dc:	02010413          	addi	s0,sp,32
100001e0:	fea42623          	sw	a0,-20(s0)
100001e4:	fec42783          	lw	a5,-20(s0)
100001e8:	bc079073          	csrw	0xbc0,a5
100001ec:	00000013          	nop
100001f0:	01c12403          	lw	s0,28(sp)
100001f4:	02010113          	addi	sp,sp,32
100001f8:	00008067          	ret

100001fc <irq_pending>:
100001fc:	fe010113          	addi	sp,sp,-32
10000200:	00812e23          	sw	s0,28(sp)
10000204:	02010413          	addi	s0,sp,32
10000208:	fc0027f3          	csrr	a5,0xfc0
1000020c:	fef42623          	sw	a5,-20(s0)
10000210:	fec42783          	lw	a5,-20(s0)
10000214:	00078513          	mv	a0,a5
10000218:	01c12403          	lw	s0,28(sp)
1000021c:	02010113          	addi	sp,sp,32
10000220:	00008067          	ret

10000224 <isr>:
10000224:	fe010113          	addi	sp,sp,-32
10000228:	00112e23          	sw	ra,28(sp)
1000022c:	00812c23          	sw	s0,24(sp)
10000230:	02010413          	addi	s0,sp,32
10000234:	fc9ff0ef          	jal	ra,100001fc <irq_pending>
10000238:	fea42623          	sw	a0,-20(s0)
1000023c:	fec42783          	lw	a5,-20(s0)
10000240:	0017f793          	andi	a5,a5,1
10000244:	02078a63          	beqz	a5,10000278 <isr+0x54>
10000248:	f00057b7          	lui	a5,0xf0005
1000024c:	01878793          	addi	a5,a5,24 # f0005018 <_etext+0xe0004bc0>
10000250:	00100713          	li	a4,1
10000254:	00e7a023          	sw	a4,0(a5)
10000258:	00100713          	li	a4,1
1000025c:	00e01023          	sh	a4,0(zero) # 0 <flag>
10000260:	f4dff0ef          	jal	ra,100001ac <irq_getmask>
10000264:	00050793          	mv	a5,a0
10000268:	ffe7f793          	andi	a5,a5,-2
1000026c:	00078513          	mv	a0,a5
10000270:	f65ff0ef          	jal	ra,100001d4 <irq_setmask>
10000274:	00000013          	nop
10000278:	01c12083          	lw	ra,28(sp)
1000027c:	01812403          	lw	s0,24(sp)
10000280:	02010113          	addi	sp,sp,32
10000284:	00008067          	ret

10000288 <flush_cpu_icache>:
10000288:	ff010113          	addi	sp,sp,-16
1000028c:	00812623          	sw	s0,12(sp)
10000290:	01010413          	addi	s0,sp,16
10000294:	00000013          	nop
10000298:	00c12403          	lw	s0,12(sp)
1000029c:	01010113          	addi	sp,sp,16
100002a0:	00008067          	ret

100002a4 <flush_cpu_dcache>:
100002a4:	ff010113          	addi	sp,sp,-16
100002a8:	00812623          	sw	s0,12(sp)
100002ac:	01010413          	addi	s0,sp,16
100002b0:	00000013          	nop
100002b4:	00c12403          	lw	s0,12(sp)
100002b8:	01010113          	addi	sp,sp,16
100002bc:	00008067          	ret

100002c0 <irq_setie>:
100002c0:	fe010113          	addi	sp,sp,-32
100002c4:	00812e23          	sw	s0,28(sp)
100002c8:	02010413          	addi	s0,sp,32
100002cc:	fea42623          	sw	a0,-20(s0)
100002d0:	fec42783          	lw	a5,-20(s0)
100002d4:	00078663          	beqz	a5,100002e0 <irq_setie+0x20>
100002d8:	30046073          	csrsi	mstatus,8
100002dc:	0080006f          	j	100002e4 <irq_setie+0x24>
100002e0:	30047073          	csrci	mstatus,8
100002e4:	00000013          	nop
100002e8:	01c12403          	lw	s0,28(sp)
100002ec:	02010113          	addi	sp,sp,32
100002f0:	00008067          	ret

100002f4 <irq_getmask>:
100002f4:	fe010113          	addi	sp,sp,-32
100002f8:	00812e23          	sw	s0,28(sp)
100002fc:	02010413          	addi	s0,sp,32
10000300:	bc0027f3          	csrr	a5,0xbc0
10000304:	fef42623          	sw	a5,-20(s0)
10000308:	fec42783          	lw	a5,-20(s0)
1000030c:	00078513          	mv	a0,a5
10000310:	01c12403          	lw	s0,28(sp)
10000314:	02010113          	addi	sp,sp,32
10000318:	00008067          	ret

1000031c <irq_setmask>:
1000031c:	fe010113          	addi	sp,sp,-32
10000320:	00812e23          	sw	s0,28(sp)
10000324:	02010413          	addi	s0,sp,32
10000328:	fea42623          	sw	a0,-20(s0)
1000032c:	fec42783          	lw	a5,-20(s0)
10000330:	bc079073          	csrw	0xbc0,a5
10000334:	00000013          	nop
10000338:	01c12403          	lw	s0,28(sp)
1000033c:	02010113          	addi	sp,sp,32
10000340:	00008067          	ret

10000344 <main>:
10000344:	ff010113          	addi	sp,sp,-16
10000348:	00112623          	sw	ra,12(sp)
1000034c:	00812423          	sw	s0,8(sp)
10000350:	01010413          	addi	s0,sp,16
10000354:	f00037b7          	lui	a5,0xf0003
10000358:	03878793          	addi	a5,a5,56 # f0003038 <_etext+0xe0002be0>
1000035c:	00500713          	li	a4,5
10000360:	00e7a023          	sw	a4,0(a5)
10000364:	f00037b7          	lui	a5,0xf0003
10000368:	03c78793          	addi	a5,a5,60 # f000303c <_etext+0xe0002be4>
1000036c:	0007a023          	sw	zero,0(a5)
10000370:	00001023          	sh	zero,0(zero) # 0 <flag>
10000374:	00000513          	li	a0,0
10000378:	fa5ff0ef          	jal	ra,1000031c <irq_setmask>
1000037c:	00100513          	li	a0,1
10000380:	f41ff0ef          	jal	ra,100002c0 <irq_setie>
10000384:	000017b7          	lui	a5,0x1
10000388:	80078793          	addi	a5,a5,-2048 # 800 <_fstack+0x200>
1000038c:	3047a073          	csrs	mie,a5
10000390:	f65ff0ef          	jal	ra,100002f4 <irq_getmask>
10000394:	00050793          	mv	a5,a0
10000398:	0017e793          	ori	a5,a5,1
1000039c:	00078513          	mv	a0,a5
100003a0:	f7dff0ef          	jal	ra,1000031c <irq_setmask>
100003a4:	f00057b7          	lui	a5,0xf0005
100003a8:	00878793          	addi	a5,a5,8 # f0005008 <_etext+0xe0004bb0>
100003ac:	0007a023          	sw	zero,0(a5)
100003b0:	f00057b7          	lui	a5,0xf0005
100003b4:	00001737          	lui	a4,0x1
100003b8:	bb870713          	addi	a4,a4,-1096 # bb8 <_fstack+0x5b8>
100003bc:	00e7a023          	sw	a4,0(a5) # f0005000 <_etext+0xe0004ba8>
100003c0:	f00057b7          	lui	a5,0xf0005
100003c4:	00c78793          	addi	a5,a5,12 # f000500c <_etext+0xe0004bb4>
100003c8:	00100713          	li	a4,1
100003cc:	00e7a023          	sw	a4,0(a5)
100003d0:	f00057b7          	lui	a5,0xf0005
100003d4:	01c78793          	addi	a5,a5,28 # f000501c <_etext+0xe0004bc4>
100003d8:	00100713          	li	a4,1
100003dc:	00e7a023          	sw	a4,0(a5)
100003e0:	f00057b7          	lui	a5,0xf0005
100003e4:	00878793          	addi	a5,a5,8 # f0005008 <_etext+0xe0004bb0>
100003e8:	00100713          	li	a4,1
100003ec:	00e7a023          	sw	a4,0(a5)
100003f0:	0140006f          	j	10000404 <main+0xc0>
100003f4:	f00037b7          	lui	a5,0xf0003
100003f8:	03c78793          	addi	a5,a5,60 # f000303c <_etext+0xe0002be4>
100003fc:	00010737          	lui	a4,0x10
10000400:	00e7a023          	sw	a4,0(a5)
10000404:	00005783          	lhu	a5,0(zero) # 0 <flag>
10000408:	01079793          	slli	a5,a5,0x10
1000040c:	0107d793          	srli	a5,a5,0x10
10000410:	fe0782e3          	beqz	a5,100003f4 <main+0xb0>
10000414:	f00037b7          	lui	a5,0xf0003
10000418:	03c78793          	addi	a5,a5,60 # f000303c <_etext+0xe0002be4>
1000041c:	00040737          	lui	a4,0x40
10000420:	00e7a023          	sw	a4,0(a5)
10000424:	f00037b7          	lui	a5,0xf0003
10000428:	03878793          	addi	a5,a5,56 # f0003038 <_etext+0xe0002be0>
1000042c:	00a00713          	li	a4,10
10000430:	00e7a023          	sw	a4,0(a5)
10000434:	f00037b7          	lui	a5,0xf0003
10000438:	03878793          	addi	a5,a5,56 # f0003038 <_etext+0xe0002be0>
1000043c:	00c00713          	li	a4,12
10000440:	00e7a023          	sw	a4,0(a5)
10000444:	00000013          	nop
10000448:	00c12083          	lw	ra,12(sp)
1000044c:	00812403          	lw	s0,8(sp)
10000450:	01010113          	addi	sp,sp,16
10000454:	00008067          	ret
