
pll.elf:     file format elf32-littleriscv


Disassembly of section .text:

10000000 <start>:
10000000:	00000093          	li	ra,0
10000004:	00000193          	li	gp,0
10000008:	00000213          	li	tp,0
1000000c:	00000293          	li	t0,0
10000010:	00000313          	li	t1,0
10000014:	00000393          	li	t2,0
10000018:	00000413          	li	s0,0
1000001c:	00000493          	li	s1,0
10000020:	00000513          	li	a0,0
10000024:	00000593          	li	a1,0
10000028:	00000613          	li	a2,0
1000002c:	00000693          	li	a3,0
10000030:	00000713          	li	a4,0
10000034:	00000793          	li	a5,0
10000038:	00000813          	li	a6,0
1000003c:	00000893          	li	a7,0
10000040:	00000913          	li	s2,0
10000044:	00000993          	li	s3,0
10000048:	00000a13          	li	s4,0
1000004c:	00000a93          	li	s5,0
10000050:	00000b13          	li	s6,0
10000054:	00000b93          	li	s7,0
10000058:	00000c13          	li	s8,0
1000005c:	00000c93          	li	s9,0
10000060:	00000d13          	li	s10,0
10000064:	00000d93          	li	s11,0
10000068:	00000e13          	li	t3,0
1000006c:	00000e93          	li	t4,0
10000070:	00000f13          	li	t5,0
10000074:	00000f93          	li	t6,0
10000078:	00000517          	auipc	a0,0x0
1000007c:	46c50513          	addi	a0,a0,1132 # 100004e4 <_etext>
10000080:	00000593          	li	a1,0
10000084:	00000613          	li	a2,0
10000088:	00c5dc63          	bge	a1,a2,100000a0 <end_init_data>

1000008c <loop_init_data>:
1000008c:	00052683          	lw	a3,0(a0)
10000090:	00d5a023          	sw	a3,0(a1)
10000094:	00450513          	addi	a0,a0,4
10000098:	00458593          	addi	a1,a1,4
1000009c:	fec5c8e3          	blt	a1,a2,1000008c <loop_init_data>

100000a0 <end_init_data>:
100000a0:	00000513          	li	a0,0
100000a4:	00000593          	li	a1,0
100000a8:	00b55863          	bge	a0,a1,100000b8 <end_init_bss>

100000ac <loop_init_bss>:
100000ac:	00052023          	sw	zero,0(a0)
100000b0:	00450513          	addi	a0,a0,4
100000b4:	feb54ce3          	blt	a0,a1,100000ac <loop_init_bss>

100000b8 <end_init_bss>:
100000b8:	60000113          	li	sp,1536
100000bc:	30529073          	csrw	mtvec,t0
100000c0:	0ec000ef          	jal	ra,100001ac <main>

100000c4 <loop>:
100000c4:	0000006f          	j	100000c4 <loop>

100000c8 <flashio_worker_begin>:
100000c8:	280002b7          	lui	t0,0x28000
100000cc:	12000313          	li	t1,288
100000d0:	00629023          	sh	t1,0(t0) # 28000000 <_etext+0x17fffb1c>
100000d4:	000281a3          	sb	zero,3(t0)
100000d8:	02060863          	beqz	a2,10000108 <flashio_worker_L1>
100000dc:	00800f13          	li	t5,8
100000e0:	0ff67393          	andi	t2,a2,255

100000e4 <flashio_worker_L4>:
100000e4:	0073de93          	srli	t4,t2,0x7
100000e8:	01d28023          	sb	t4,0(t0)
100000ec:	010eee93          	ori	t4,t4,16
100000f0:	01d28023          	sb	t4,0(t0)
100000f4:	00139393          	slli	t2,t2,0x1
100000f8:	0ff3f393          	andi	t2,t2,255
100000fc:	ffff0f13          	addi	t5,t5,-1
10000100:	fe0f12e3          	bnez	t5,100000e4 <flashio_worker_L4>
10000104:	00628023          	sb	t1,0(t0)

10000108 <flashio_worker_L1>:
10000108:	06058063          	beqz	a1,10000168 <flashio_worker_L3>
1000010c:	02000f13          	li	t5,32
10000110:	00052383          	lw	t2,0(a0)

10000114 <flashio_worker_LY>:
10000114:	00800f93          	li	t6,8

10000118 <flashio_worker_L2>:
10000118:	01f3de93          	srli	t4,t2,0x1f
1000011c:	01d28023          	sb	t4,0(t0)
10000120:	010eee93          	ori	t4,t4,16
10000124:	01d28023          	sb	t4,0(t0)
10000128:	0002ce83          	lbu	t4,0(t0)
1000012c:	002efe93          	andi	t4,t4,2
10000130:	001ede93          	srli	t4,t4,0x1
10000134:	00139393          	slli	t2,t2,0x1
10000138:	01d3e3b3          	or	t2,t2,t4
1000013c:	ffff0f13          	addi	t5,t5,-1
10000140:	000f1863          	bnez	t5,10000150 <flashio_worker_LX>
10000144:	00752023          	sw	t2,0(a0)
10000148:	00450513          	addi	a0,a0,4
1000014c:	00052383          	lw	t2,0(a0)

10000150 <flashio_worker_LX>:
10000150:	ffff8f93          	addi	t6,t6,-1
10000154:	fc0f92e3          	bnez	t6,10000118 <flashio_worker_L2>
10000158:	fff58593          	addi	a1,a1,-1
1000015c:	fa059ce3          	bnez	a1,10000114 <flashio_worker_LY>
10000160:	000f0463          	beqz	t5,10000168 <flashio_worker_L3>
10000164:	00752023          	sw	t2,0(a0)

10000168 <flashio_worker_L3>:
10000168:	08000313          	li	t1,128
1000016c:	006281a3          	sb	t1,3(t0)
10000170:	00008067          	ret

10000174 <flush_cpu_icache>:
10000174:	ff010113          	addi	sp,sp,-16
10000178:	00812623          	sw	s0,12(sp)
1000017c:	01010413          	addi	s0,sp,16
10000180:	00000013          	nop
10000184:	00c12403          	lw	s0,12(sp)
10000188:	01010113          	addi	sp,sp,16
1000018c:	00008067          	ret

10000190 <flush_cpu_dcache>:
10000190:	ff010113          	addi	sp,sp,-16
10000194:	00812623          	sw	s0,12(sp)
10000198:	01010413          	addi	s0,sp,16
1000019c:	00000013          	nop
100001a0:	00c12403          	lw	s0,12(sp)
100001a4:	01010113          	addi	sp,sp,16
100001a8:	00008067          	ret

100001ac <main>:
100001ac:	ff010113          	addi	sp,sp,-16
100001b0:	00812623          	sw	s0,12(sp)
100001b4:	01010413          	addi	s0,sp,16
100001b8:	260007b7          	lui	a5,0x26000
100001bc:	00c78793          	addi	a5,a5,12 # 2600000c <_etext+0x15fffb28>
100001c0:	0007a023          	sw	zero,0(a5)
100001c4:	260007b7          	lui	a5,0x26000
100001c8:	0a078793          	addi	a5,a5,160 # 260000a0 <_etext+0x15fffbbc>
100001cc:	00002737          	lui	a4,0x2
100001d0:	80970713          	addi	a4,a4,-2039 # 1809 <_fstack+0x1209>
100001d4:	00e7a023          	sw	a4,0(a5)
100001d8:	260007b7          	lui	a5,0x26000
100001dc:	09c78793          	addi	a5,a5,156 # 2600009c <_etext+0x15fffbb8>
100001e0:	00002737          	lui	a4,0x2
100001e4:	80970713          	addi	a4,a4,-2039 # 1809 <_fstack+0x1209>
100001e8:	00e7a023          	sw	a4,0(a5)
100001ec:	260007b7          	lui	a5,0x26000
100001f0:	09878793          	addi	a5,a5,152 # 26000098 <_etext+0x15fffbb4>
100001f4:	00002737          	lui	a4,0x2
100001f8:	80970713          	addi	a4,a4,-2039 # 1809 <_fstack+0x1209>
100001fc:	00e7a023          	sw	a4,0(a5)
10000200:	260007b7          	lui	a5,0x26000
10000204:	09478793          	addi	a5,a5,148 # 26000094 <_etext+0x15fffbb0>
10000208:	00002737          	lui	a4,0x2
1000020c:	80970713          	addi	a4,a4,-2039 # 1809 <_fstack+0x1209>
10000210:	00e7a023          	sw	a4,0(a5)
10000214:	260007b7          	lui	a5,0x26000
10000218:	09078793          	addi	a5,a5,144 # 26000090 <_etext+0x15fffbac>
1000021c:	00002737          	lui	a4,0x2
10000220:	80970713          	addi	a4,a4,-2039 # 1809 <_fstack+0x1209>
10000224:	00e7a023          	sw	a4,0(a5)
10000228:	260007b7          	lui	a5,0x26000
1000022c:	08c78793          	addi	a5,a5,140 # 2600008c <_etext+0x15fffba8>
10000230:	00002737          	lui	a4,0x2
10000234:	80970713          	addi	a4,a4,-2039 # 1809 <_fstack+0x1209>
10000238:	00e7a023          	sw	a4,0(a5)
1000023c:	260007b7          	lui	a5,0x26000
10000240:	08878793          	addi	a5,a5,136 # 26000088 <_etext+0x15fffba4>
10000244:	00002737          	lui	a4,0x2
10000248:	80970713          	addi	a4,a4,-2039 # 1809 <_fstack+0x1209>
1000024c:	00e7a023          	sw	a4,0(a5)
10000250:	260007b7          	lui	a5,0x26000
10000254:	08478793          	addi	a5,a5,132 # 26000084 <_etext+0x15fffba0>
10000258:	00002737          	lui	a4,0x2
1000025c:	80970713          	addi	a4,a4,-2039 # 1809 <_fstack+0x1209>
10000260:	00e7a023          	sw	a4,0(a5)
10000264:	260007b7          	lui	a5,0x26000
10000268:	08078793          	addi	a5,a5,128 # 26000080 <_etext+0x15fffb9c>
1000026c:	00002737          	lui	a4,0x2
10000270:	80970713          	addi	a4,a4,-2039 # 1809 <_fstack+0x1209>
10000274:	00e7a023          	sw	a4,0(a5)
10000278:	260007b7          	lui	a5,0x26000
1000027c:	07c78793          	addi	a5,a5,124 # 2600007c <_etext+0x15fffb98>
10000280:	00002737          	lui	a4,0x2
10000284:	80970713          	addi	a4,a4,-2039 # 1809 <_fstack+0x1209>
10000288:	00e7a023          	sw	a4,0(a5)
1000028c:	260007b7          	lui	a5,0x26000
10000290:	07878793          	addi	a5,a5,120 # 26000078 <_etext+0x15fffb94>
10000294:	00002737          	lui	a4,0x2
10000298:	80970713          	addi	a4,a4,-2039 # 1809 <_fstack+0x1209>
1000029c:	00e7a023          	sw	a4,0(a5)
100002a0:	260007b7          	lui	a5,0x26000
100002a4:	07478793          	addi	a5,a5,116 # 26000074 <_etext+0x15fffb90>
100002a8:	00002737          	lui	a4,0x2
100002ac:	80970713          	addi	a4,a4,-2039 # 1809 <_fstack+0x1209>
100002b0:	00e7a023          	sw	a4,0(a5)
100002b4:	260007b7          	lui	a5,0x26000
100002b8:	07078793          	addi	a5,a5,112 # 26000070 <_etext+0x15fffb8c>
100002bc:	00002737          	lui	a4,0x2
100002c0:	80970713          	addi	a4,a4,-2039 # 1809 <_fstack+0x1209>
100002c4:	00e7a023          	sw	a4,0(a5)
100002c8:	260007b7          	lui	a5,0x26000
100002cc:	06c78793          	addi	a5,a5,108 # 2600006c <_etext+0x15fffb88>
100002d0:	00002737          	lui	a4,0x2
100002d4:	80970713          	addi	a4,a4,-2039 # 1809 <_fstack+0x1209>
100002d8:	00e7a023          	sw	a4,0(a5)
100002dc:	260007b7          	lui	a5,0x26000
100002e0:	06878793          	addi	a5,a5,104 # 26000068 <_etext+0x15fffb84>
100002e4:	00002737          	lui	a4,0x2
100002e8:	80970713          	addi	a4,a4,-2039 # 1809 <_fstack+0x1209>
100002ec:	00e7a023          	sw	a4,0(a5)
100002f0:	260007b7          	lui	a5,0x26000
100002f4:	06478793          	addi	a5,a5,100 # 26000064 <_etext+0x15fffb80>
100002f8:	00002737          	lui	a4,0x2
100002fc:	80970713          	addi	a4,a4,-2039 # 1809 <_fstack+0x1209>
10000300:	00e7a023          	sw	a4,0(a5)
10000304:	260007b7          	lui	a5,0x26000
10000308:	06078793          	addi	a5,a5,96 # 26000060 <_etext+0x15fffb7c>
1000030c:	00002737          	lui	a4,0x2
10000310:	80970713          	addi	a4,a4,-2039 # 1809 <_fstack+0x1209>
10000314:	00e7a023          	sw	a4,0(a5)
10000318:	260007b7          	lui	a5,0x26000
1000031c:	05c78793          	addi	a5,a5,92 # 2600005c <_etext+0x15fffb78>
10000320:	00002737          	lui	a4,0x2
10000324:	80970713          	addi	a4,a4,-2039 # 1809 <_fstack+0x1209>
10000328:	00e7a023          	sw	a4,0(a5)
1000032c:	260007b7          	lui	a5,0x26000
10000330:	00100713          	li	a4,1
10000334:	00e7a023          	sw	a4,0(a5) # 26000000 <_etext+0x15fffb1c>
10000338:	00000013          	nop
1000033c:	260007b7          	lui	a5,0x26000
10000340:	0007a703          	lw	a4,0(a5) # 26000000 <_etext+0x15fffb1c>
10000344:	00100793          	li	a5,1
10000348:	fef70ae3          	beq	a4,a5,1000033c <main+0x190>
1000034c:	260007b7          	lui	a5,0x26000
10000350:	00c78793          	addi	a5,a5,12 # 2600000c <_etext+0x15fffb28>
10000354:	a0400737          	lui	a4,0xa0400
10000358:	00e7a023          	sw	a4,0(a5)
1000035c:	262007b7          	lui	a5,0x26200
10000360:	00478793          	addi	a5,a5,4 # 26200004 <_etext+0x161ffb20>
10000364:	00600713          	li	a4,6
10000368:	00e7a023          	sw	a4,0(a5)
1000036c:	262007b7          	lui	a5,0x26200
10000370:	00478793          	addi	a5,a5,4 # 26200004 <_etext+0x161ffb20>
10000374:	0007a023          	sw	zero,0(a5)
10000378:	260007b7          	lui	a5,0x26000
1000037c:	00c78793          	addi	a5,a5,12 # 2600000c <_etext+0x15fffb28>
10000380:	a0410737          	lui	a4,0xa0410
10000384:	00e7a023          	sw	a4,0(a5)
10000388:	261007b7          	lui	a5,0x26100
1000038c:	00c78793          	addi	a5,a5,12 # 2610000c <_etext+0x160ffb28>
10000390:	00100713          	li	a4,1
10000394:	00e7a023          	sw	a4,0(a5)
10000398:	261007b7          	lui	a5,0x26100
1000039c:	02078793          	addi	a5,a5,32 # 26100020 <_etext+0x160ffb3c>
100003a0:	00300713          	li	a4,3
100003a4:	00e7a023          	sw	a4,0(a5)
100003a8:	260007b7          	lui	a5,0x26000
100003ac:	00c78793          	addi	a5,a5,12 # 2600000c <_etext+0x15fffb28>
100003b0:	a0420737          	lui	a4,0xa0420
100003b4:	00e7a023          	sw	a4,0(a5)
100003b8:	262007b7          	lui	a5,0x26200
100003bc:	00478793          	addi	a5,a5,4 # 26200004 <_etext+0x161ffb20>
100003c0:	00600713          	li	a4,6
100003c4:	00e7a023          	sw	a4,0(a5)
100003c8:	262007b7          	lui	a5,0x26200
100003cc:	00478793          	addi	a5,a5,4 # 26200004 <_etext+0x161ffb20>
100003d0:	0007a023          	sw	zero,0(a5)
100003d4:	260007b7          	lui	a5,0x26000
100003d8:	00c78793          	addi	a5,a5,12 # 2600000c <_etext+0x15fffb28>
100003dc:	a0430737          	lui	a4,0xa0430
100003e0:	00e7a023          	sw	a4,0(a5)
100003e4:	261007b7          	lui	a5,0x26100
100003e8:	01078793          	addi	a5,a5,16 # 26100010 <_etext+0x160ffb2c>
100003ec:	0007a023          	sw	zero,0(a5)
100003f0:	260007b7          	lui	a5,0x26000
100003f4:	00c78793          	addi	a5,a5,12 # 2600000c <_etext+0x15fffb28>
100003f8:	a0440737          	lui	a4,0xa0440
100003fc:	00e7a023          	sw	a4,0(a5)
10000400:	262007b7          	lui	a5,0x26200
10000404:	00478793          	addi	a5,a5,4 # 26200004 <_etext+0x161ffb20>
10000408:	00600713          	li	a4,6
1000040c:	00e7a023          	sw	a4,0(a5)
10000410:	262007b7          	lui	a5,0x26200
10000414:	00478793          	addi	a5,a5,4 # 26200004 <_etext+0x161ffb20>
10000418:	0007a023          	sw	zero,0(a5)
1000041c:	260007b7          	lui	a5,0x26000
10000420:	00c78793          	addi	a5,a5,12 # 2600000c <_etext+0x15fffb28>
10000424:	a0450737          	lui	a4,0xa0450
10000428:	00e7a023          	sw	a4,0(a5)
1000042c:	261007b7          	lui	a5,0x26100
10000430:	02478793          	addi	a5,a5,36 # 26100024 <_etext+0x160ffb40>
10000434:	00300713          	li	a4,3
10000438:	00e7a023          	sw	a4,0(a5)
1000043c:	260007b7          	lui	a5,0x26000
10000440:	00c78793          	addi	a5,a5,12 # 2600000c <_etext+0x15fffb28>
10000444:	a0460737          	lui	a4,0xa0460
10000448:	00e7a023          	sw	a4,0(a5)
1000044c:	262007b7          	lui	a5,0x26200
10000450:	00478793          	addi	a5,a5,4 # 26200004 <_etext+0x161ffb20>
10000454:	00600713          	li	a4,6
10000458:	00e7a023          	sw	a4,0(a5)
1000045c:	262007b7          	lui	a5,0x26200
10000460:	00478793          	addi	a5,a5,4 # 26200004 <_etext+0x161ffb20>
10000464:	0007a023          	sw	zero,0(a5)
10000468:	260007b7          	lui	a5,0x26000
1000046c:	00c78793          	addi	a5,a5,12 # 2600000c <_etext+0x15fffb28>
10000470:	a0470737          	lui	a4,0xa0470
10000474:	00e7a023          	sw	a4,0(a5)
10000478:	261007b7          	lui	a5,0x26100
1000047c:	02078793          	addi	a5,a5,32 # 26100020 <_etext+0x160ffb3c>
10000480:	00400713          	li	a4,4
10000484:	00e7a023          	sw	a4,0(a5)
10000488:	260007b7          	lui	a5,0x26000
1000048c:	00c78793          	addi	a5,a5,12 # 2600000c <_etext+0x15fffb28>
10000490:	a0480737          	lui	a4,0xa0480
10000494:	00e7a023          	sw	a4,0(a5)
10000498:	262007b7          	lui	a5,0x26200
1000049c:	00478793          	addi	a5,a5,4 # 26200004 <_etext+0x161ffb20>
100004a0:	00600713          	li	a4,6
100004a4:	00e7a023          	sw	a4,0(a5)
100004a8:	262007b7          	lui	a5,0x26200
100004ac:	00478793          	addi	a5,a5,4 # 26200004 <_etext+0x161ffb20>
100004b0:	0007a023          	sw	zero,0(a5)
100004b4:	260007b7          	lui	a5,0x26000
100004b8:	00c78793          	addi	a5,a5,12 # 2600000c <_etext+0x15fffb28>
100004bc:	a0490737          	lui	a4,0xa0490
100004c0:	00e7a023          	sw	a4,0(a5)
100004c4:	260007b7          	lui	a5,0x26000
100004c8:	00c78793          	addi	a5,a5,12 # 2600000c <_etext+0x15fffb28>
100004cc:	a0900737          	lui	a4,0xa0900
100004d0:	00e7a023          	sw	a4,0(a5)
100004d4:	00000013          	nop
100004d8:	00c12403          	lw	s0,12(sp)
100004dc:	01010113          	addi	sp,sp,16
100004e0:	00008067          	ret
